; Function Attrs: mustprogress nounwind uwtable
define noundef zeroext i1 @_ZN8facebook5velox6common9Tokenizer16hasNextCharacterEv(ptr noundef nonnull align 8 dereferenceable(72) %this) local_unnamed_addr #3 align 2 {
entry:
  %index_ = getelementptr inbounds i8, ptr %this, i64 48
  %0 = load i32, ptr %index_, align 8
  %conv = sext i32 %0 to i64
  %call = tail call noundef i64 @_ZNKSt7__cxx1112basic_stringIcSt11char_traitsIcESaIcEE6lengthEv(ptr noundef nonnull align 8 dereferenceable(32) %this) #20
  %cmp = icmp ugt i64 %call, %conv
  ret i1 %cmp
}